target datalayout = "e-m:e-p270:32:32-p271:32:32-p272:64:64-i64:64-i128:128-f80:128-n8:16:32:64-S128"
target triple = "x86_64-pc-linux-gnu"

%struct.SnapshotData = type { i32, i32, i32, ptr, i32, ptr, i32, i8, i8, i8, i32, i32, ptr, i32, i32, %struct.pairingheap_node, i64 }
%struct.pairingheap_node = type { ptr, ptr, ptr }
%struct.HeapScanDescData = type { %struct.TableScanDescData, i32, i32, i32, i8, i16, i32, i32, ptr, %struct.HeapTupleData, ptr, i32, i32, ptr, i32, i32, [291 x i16] }
%struct.TableScanDescData = type { ptr, ptr, i32, ptr, %union.anon, i32, ptr }
%union.anon = type { %struct.TBMIterator }
%struct.TBMIterator = type { i8, %union.anon.0 }
%union.anon.0 = type { ptr }
%struct.HeapTupleData = type { i32, %struct.ItemPointerData, i32, ptr }
%struct.ItemPointerData = type { %struct.BlockIdData, i16 }
%struct.BlockIdData = type { i16, i16 }
%struct.RelationData = type { %struct.RelFileLocator, ptr, i32, i32, i8, i8, i8, i8, i8, i32, i32, i32, i32, ptr, ptr, i32, %struct.LockInfoData, ptr, ptr, ptr, ptr, ptr, i8, ptr, ptr, ptr, ptr, ptr, ptr, i32, ptr, i8, ptr, ptr, i32, i8, i32, ptr, i8, ptr, ptr, ptr, ptr, ptr, ptr, ptr, i32, ptr, ptr, ptr, ptr, ptr, ptr, ptr, ptr, ptr, ptr, ptr, ptr, ptr, ptr, ptr, ptr, ptr, ptr, ptr, i32, i8, ptr }
%struct.RelFileLocator = type { i32, i32, i32 }
%struct.LockInfoData = type { %struct.LockRelId }
%struct.LockRelId = type { i32, i32 }
%struct.BitmapHeapScanDescData = type { %struct.HeapScanDescData, i32, i32 }

; Function Attrs: nounwind uwtable
define dso_local ptr @heap_beginscan(ptr noundef %0, ptr noundef %1, i32 noundef %2, ptr noundef %3, ptr noundef %4, i32 noundef %5) #0 {
  %7 = alloca ptr, align 8
  %8 = alloca ptr, align 8
  %9 = alloca i32, align 4
  %10 = alloca ptr, align 8
  %11 = alloca ptr, align 8
  %12 = alloca i32, align 4
  %13 = alloca ptr, align 8
  %14 = alloca ptr, align 8
  %15 = alloca ptr, align 8
  store ptr %0, ptr %7, align 8
  store ptr %1, ptr %8, align 8
  store i32 %2, ptr %9, align 4
  store ptr %3, ptr %10, align 8
  store ptr %4, ptr %11, align 8
  store i32 %5, ptr %12, align 4
  call void @llvm.lifetime.start.p0(i64 8, ptr %13) #10
  %16 = load ptr, ptr %7, align 8
  call void @RelationIncrementReferenceCount(ptr noundef %16)
  %17 = load i32, ptr %12, align 4
  %18 = and i32 %17, 2
  %19 = icmp ne i32 %18, 0
  br i1 %19, label %20, label %27

20:                                               ; preds = %6
  call void @llvm.lifetime.start.p0(i64 8, ptr %14) #10
  %21 = call ptr @palloc(i64 noundef 744)
  store ptr %21, ptr %14, align 8
  %22 = load ptr, ptr %14, align 8
  %23 = getelementptr inbounds nuw %struct.BitmapHeapScanDescData, ptr %22, i32 0, i32 1
  store i32 0, ptr %23, align 8
  %24 = load ptr, ptr %14, align 8
  %25 = getelementptr inbounds nuw %struct.BitmapHeapScanDescData, ptr %24, i32 0, i32 2
  store i32 0, ptr %25, align 4
  %26 = load ptr, ptr %14, align 8
  store ptr %26, ptr %13, align 8
  call void @llvm.lifetime.end.p0(i64 8, ptr %14) #10
  br label %29

27:                                               ; preds = %6
  %28 = call ptr @palloc(i64 noundef 736)
  store ptr %28, ptr %13, align 8
  br label %29

29:                                               ; preds = %27, %20
  %30 = load ptr, ptr %7, align 8
  %31 = load ptr, ptr %13, align 8
  %32 = getelementptr inbounds nuw %struct.HeapScanDescData, ptr %31, i32 0, i32 0
  %33 = getelementptr inbounds nuw %struct.TableScanDescData, ptr %32, i32 0, i32 0
  store ptr %30, ptr %33, align 8
  %34 = load ptr, ptr %8, align 8
  %35 = load ptr, ptr %13, align 8
  %36 = getelementptr inbounds nuw %struct.HeapScanDescData, ptr %35, i32 0, i32 0
  %37 = getelementptr inbounds nuw %struct.TableScanDescData, ptr %36, i32 0, i32 1
  store ptr %34, ptr %37, align 8
  %38 = load i32, ptr %9, align 4
  %39 = load ptr, ptr %13, align 8
  %40 = getelementptr inbounds nuw %struct.HeapScanDescData, ptr %39, i32 0, i32 0
  %41 = getelementptr inbounds nuw %struct.TableScanDescData, ptr %40, i32 0, i32 2
  store i32 %38, ptr %41, align 8
  %42 = load i32, ptr %12, align 4
  %43 = load ptr, ptr %13, align 8
  %44 = getelementptr inbounds nuw %struct.HeapScanDescData, ptr %43, i32 0, i32 0
  %45 = getelementptr inbounds nuw %struct.TableScanDescData, ptr %44, i32 0, i32 5
  store i32 %42, ptr %45, align 8
  %46 = load ptr, ptr %11, align 8
  %47 = load ptr, ptr %13, align 8
  %48 = getelementptr inbounds nuw %struct.HeapScanDescData, ptr %47, i32 0, i32 0
  %49 = getelementptr inbounds nuw %struct.TableScanDescData, ptr %48, i32 0, i32 6
  store ptr %46, ptr %49, align 8
  %50 = load ptr, ptr %13, align 8
  %51 = getelementptr inbounds nuw %struct.HeapScanDescData, ptr %50, i32 0, i32 8
  store ptr null, ptr %51, align 8
  %52 = load ptr, ptr %8, align 8
  %53 = icmp ne ptr %52, null
  br i1 %53, label %54, label %64

54:                                               ; preds = %29
  %55 = load ptr, ptr %8, align 8
  %56 = getelementptr inbounds nuw %struct.SnapshotData, ptr %55, i32 0, i32 0
  %57 = load i32, ptr %56, align 8
  %58 = icmp eq i32 %57, 0
  br i1 %58, label %70, label %59

59:                                               ; preds = %54
  %60 = load ptr, ptr %8, align 8
  %61 = getelementptr inbounds nuw %struct.SnapshotData, ptr %60, i32 0, i32 0
  %62 = load i32, ptr %61, align 8
  %63 = icmp eq i32 %62, 5
  br i1 %63, label %70, label %64

64:                                               ; preds = %59, %29
  %65 = load ptr, ptr %13, align 8
  %66 = getelementptr inbounds nuw %struct.HeapScanDescData, ptr %65, i32 0, i32 0
  %67 = getelementptr inbounds nuw %struct.TableScanDescData, ptr %66, i32 0, i32 5
  %68 = load i32, ptr %67, align 8
  %69 = and i32 %68, -257
  store i32 %69, ptr %67, align 8
  br label %70

70:                                               ; preds = %64, %59, %54
  %71 = load ptr, ptr %13, align 8
  %72 = getelementptr inbounds nuw %struct.HeapScanDescData, ptr %71, i32 0, i32 0
  %73 = getelementptr inbounds nuw %struct.TableScanDescData, ptr %72, i32 0, i32 5
  %74 = load i32, ptr %73, align 8
  %75 = and i32 %74, 5
  %76 = icmp ne i32 %75, 0
  br i1 %76, label %77, label %80

77:                                               ; preds = %70
  %78 = load ptr, ptr %7, align 8
  %79 = load ptr, ptr %8, align 8
  call void @PredicateLockRelation(ptr noundef %78, ptr noundef %79)
  br label %80

80:                                               ; preds = %77, %70
  %81 = load ptr, ptr %7, align 8
  %82 = getelementptr inbounds nuw %struct.RelationData, ptr %81, i32 0, i32 15
  %83 = load i32, ptr %82, align 8
  %84 = load ptr, ptr %13, align 8
  %85 = getelementptr inbounds nuw %struct.HeapScanDescData, ptr %84, i32 0, i32 9
  %86 = getelementptr inbounds nuw %struct.HeapTupleData, ptr %85, i32 0, i32 2
  store i32 %83, ptr %86, align 4
  %87 = load ptr, ptr %11, align 8
  %88 = icmp ne ptr %87, null
  br i1 %88, label %89, label %93

89:                                               ; preds = %80
  %90 = call ptr @palloc(i64 noundef 16)
  %91 = load ptr, ptr %13, align 8
  %92 = getelementptr inbounds nuw %struct.HeapScanDescData, ptr %91, i32 0, i32 13
  store ptr %90, ptr %92, align 8
  br label %96

93:                                               ; preds = %80
  %94 = load ptr, ptr %13, align 8
  %95 = getelementptr inbounds nuw %struct.HeapScanDescData, ptr %94, i32 0, i32 13
  store ptr null, ptr %95, align 8
  br label %96

96:                                               ; preds = %93, %89
  %97 = load i32, ptr %9, align 4
  %98 = icmp sgt i32 %97, 0
  br i1 %98, label %99, label %107

99:                                               ; preds = %96
  %100 = load i32, ptr %9, align 4
  %101 = sext i32 %100 to i64
  %102 = mul i64 72, %101
  %103 = call ptr @palloc(i64 noundef %102)
  %104 = load ptr, ptr %13, align 8
  %105 = getelementptr inbounds nuw %struct.HeapScanDescData, ptr %104, i32 0, i32 0
  %106 = getelementptr inbounds nuw %struct.TableScanDescData, ptr %105, i32 0, i32 3
  store ptr %103, ptr %106, align 8
  br label %111

107:                                              ; preds = %96
  %108 = load ptr, ptr %13, align 8
  %109 = getelementptr inbounds nuw %struct.HeapScanDescData, ptr %108, i32 0, i32 0
  %110 = getelementptr inbounds nuw %struct.TableScanDescData, ptr %109, i32 0, i32 3
  store ptr null, ptr %110, align 8
  br label %111

111:                                              ; preds = %107, %99
  %112 = load ptr, ptr %13, align 8
  %113 = load ptr, ptr %10, align 8
  call void @initscan(ptr noundef %112, ptr noundef %113, i1 noundef zeroext false)
  %114 = load ptr, ptr %13, align 8
  %115 = getelementptr inbounds nuw %struct.HeapScanDescData, ptr %114, i32 0, i32 10
  store ptr null, ptr %115, align 8
  %116 = load ptr, ptr %13, align 8
  %117 = getelementptr inbounds nuw %struct.HeapScanDescData, ptr %116, i32 0, i32 0
  %118 = getelementptr inbounds nuw %struct.TableScanDescData, ptr %117, i32 0, i32 5
  %119 = load i32, ptr %118, align 8
  %120 = and i32 %119, 1
  %121 = icmp ne i32 %120, 0
  br i1 %121, label %129, label %122

122:                                              ; preds = %111
  %123 = load ptr, ptr %13, align 8
  %124 = getelementptr inbounds nuw %struct.HeapScanDescData, ptr %123, i32 0, i32 0
  %125 = getelementptr inbounds nuw %struct.TableScanDescData, ptr %124, i32 0, i32 5
  %126 = load i32, ptr %125, align 8
  %127 = and i32 %126, 16
  %128 = icmp ne i32 %127, 0
  br i1 %128, label %129, label %150

129:                                              ; preds = %122, %111
  call void @llvm.lifetime.start.p0(i64 8, ptr %15) #10
  %130 = load ptr, ptr %13, align 8
  %131 = getelementptr inbounds nuw %struct.HeapScanDescData, ptr %130, i32 0, i32 0
  %132 = getelementptr inbounds nuw %struct.TableScanDescData, ptr %131, i32 0, i32 6
  %133 = load ptr, ptr %132, align 8
  %134 = icmp ne ptr %133, null
  br i1 %134, label %135, label %136

135:                                              ; preds = %129
  store ptr @heap_scan_stream_read_next_parallel, ptr %15, align 8
  br label %137

136:                                              ; preds = %129
  store ptr @heap_scan_stream_read_next_serial, ptr %15, align 8
  br label %137

137:                                              ; preds = %136, %135
  %138 = load ptr, ptr %13, align 8
  %139 = getelementptr inbounds nuw %struct.HeapScanDescData, ptr %138, i32 0, i32 8
  %140 = load ptr, ptr %139, align 8
  %141 = load ptr, ptr %13, align 8
  %142 = getelementptr inbounds nuw %struct.HeapScanDescData, ptr %141, i32 0, i32 0
  %143 = getelementptr inbounds nuw %struct.TableScanDescData, ptr %142, i32 0, i32 0
  %144 = load ptr, ptr %143, align 8
  %145 = load ptr, ptr %15, align 8
  %146 = load ptr, ptr %13, align 8
  %147 = call ptr @read_stream_begin_relation(i32 noundef 2, ptr noundef %140, ptr noundef %144, i32 noundef 0, ptr noundef %145, ptr noundef %146, i64 noundef 0)
  %148 = load ptr, ptr %13, align 8
  %149 = getelementptr inbounds nuw %struct.HeapScanDescData, ptr %148, i32 0, i32 10
  store ptr %147, ptr %149, align 8
  call void @llvm.lifetime.end.p0(i64 8, ptr %15) #10
  br label %150

150:                                              ; preds = %137, %122
  %151 = load ptr, ptr %13, align 8
  call void @llvm.lifetime.end.p0(i64 8, ptr %13) #10
  ret ptr %151
}