; Function Attrs: nounwind uwtable
define dso_local noundef ptr @heap_beginscan(ptr noundef %0, ptr noundef %1, i32 noundef %2, ptr noundef captures(address_is_null) %3, ptr noundef %4, i32 noundef %5) local_unnamed_addr #2 {
  tail call void @RelationIncrementReferenceCount(ptr noundef %0) #13
  %7 = and i32 %5, 2
  %.not = icmp eq i32 %7, 0
  br i1 %.not, label %12, label %8

8:                                                ; preds = %6
  %9 = tail call ptr @palloc(i64 noundef 744) #13
  %10 = getelementptr inbounds nuw i8, ptr %9, i64 736
  store i32 0, ptr %10, align 8
  %11 = getelementptr inbounds nuw i8, ptr %9, i64 740
  store i32 0, ptr %11, align 4
  br label %14

12:                                               ; preds = %6
  %13 = tail call ptr @palloc(i64 noundef 736) #13
  br label %14

14:                                               ; preds = %12, %8
  %.043 = phi ptr [ %9, %8 ], [ %13, %12 ]
  store ptr %0, ptr %.043, align 8
  %15 = getelementptr inbounds nuw i8, ptr %.043, i64 8
  store ptr %1, ptr %15, align 8
  %16 = getelementptr inbounds nuw i8, ptr %.043, i64 16
  store i32 %2, ptr %16, align 8
  %17 = getelementptr inbounds nuw i8, ptr %.043, i64 48
  store i32 %5, ptr %17, align 8
  %18 = getelementptr inbounds nuw i8, ptr %.043, i64 56
  store ptr %4, ptr %18, align 8
  %19 = getelementptr inbounds nuw i8, ptr %.043, i64 88
  store ptr null, ptr %19, align 8
  %.not47 = icmp eq ptr %1, null
  br i1 %.not47, label %22, label %20

20:                                               ; preds = %14
  %21 = load i32, ptr %1, align 8
  switch i32 %21, label %22 [
    i32 0, label %24
    i32 5, label %24
  ]

22:                                               ; preds = %20, %14
  %23 = and i32 %5, -257
  store i32 %23, ptr %17, align 8
  br label %24

24:                                               ; preds = %20, %20, %22
  %25 = phi i32 [ %5, %20 ], [ %5, %20 ], [ %23, %22 ]
  %26 = and i32 %25, 5
  %.not48 = icmp eq i32 %26, 0
  br i1 %.not48, label %28, label %27

27:                                               ; preds = %24
  tail call void @PredicateLockRelation(ptr noundef %0, ptr noundef %1) #13
  br label %28

28:                                               ; preds = %27, %24
  %29 = getelementptr inbounds nuw i8, ptr %0, i64 72
  %30 = load i32, ptr %29, align 8
  %31 = getelementptr inbounds nuw i8, ptr %.043, i64 108
  store i32 %30, ptr %31, align 4
  %.not49 = icmp eq ptr %4, null
  br i1 %.not49, label %34, label %32

32:                                               ; preds = %28
  %33 = tail call ptr @palloc(i64 noundef 16) #13
  br label %34

34:                                               ; preds = %28, %32
  %.sink = phi ptr [ %33, %32 ], [ null, %28 ]
  %35 = getelementptr inbounds nuw i8, ptr %.043, i64 136
  store ptr %.sink, ptr %35, align 8
  %36 = icmp sgt i32 %2, 0
  br i1 %36, label %37, label %41

37:                                               ; preds = %34
  %38 = zext nneg i32 %2 to i64
  %39 = mul nuw nsw i64 %38, 72
  %40 = tail call ptr @palloc(i64 noundef %39) #13
  br label %41

41:                                               ; preds = %34, %37
  %.sink53 = phi ptr [ %40, %37 ], [ null, %34 ]
  %42 = getelementptr inbounds nuw i8, ptr %.043, i64 24
  store ptr %.sink53, ptr %42, align 8
  tail call fastcc void @initscan(ptr noundef nonnull %.043, ptr noundef %3, i1 noundef zeroext false)
  %43 = getelementptr inbounds nuw i8, ptr %.043, i64 120
  store ptr null, ptr %43, align 8
  %44 = load i32, ptr %17, align 8
  %45 = and i32 %44, 17
  %or.cond = icmp eq i32 %45, 0
  br i1 %or.cond, label %51, label %46

46:                                               ; preds = %41
  %47 = load ptr, ptr %18, align 8
  %.not52 = icmp eq ptr %47, null
  %heap_scan_stream_read_next_serial.heap_scan_stream_read_next_parallel = select i1 %.not52, ptr @heap_scan_stream_read_next_serial, ptr @heap_scan_stream_read_next_parallel
  %48 = load ptr, ptr %19, align 8
  %49 = load ptr, ptr %.043, align 8
  %50 = tail call ptr @read_stream_begin_relation(i32 noundef 2, ptr noundef %48, ptr noundef %49, i32 noundef 0, ptr noundef nonnull %heap_scan_stream_read_next_serial.heap_scan_stream_read_next_parallel, ptr noundef nonnull %.043, i64 noundef 0) #13
  store ptr %50, ptr %43, align 8
  br label %51

51:                                               ; preds = %41, %46
  ret ptr %.043
}